(lp0
S'706657418272537838120269205648536857025380515900212367011838202576189497'
p1
aS'85507866202082655740729898291105021208219916870939638968509795'
p2
aS'276199713808223284619538626041109591995583116850'
p3
a.